target datalayout = "e-m:e-p270:32:32-p271:32:32-p272:64:64-i64:64-i128:128-f80:128-n8:16:32:64-S128"
target triple = "x86_64-pc-linux-gnu"

%struct.except_id_t = type { i64, i64 }
%struct.except_stacknode = type { ptr, i32, %union.anon }
%union.anon = type { ptr }
%struct.except_catch = type { ptr, i64, %struct.except_t, [1 x %struct.__jmp_buf_tag] }
%struct.except_t = type { %struct.except_id_t, ptr, ptr }
%struct.__jmp_buf_tag = type { [8 x i64], i32, %struct.__sigset_t }
%struct.__sigset_t = type { [16 x i64] }

@get_z3950_pdu_len.catch_spec = internal constant [1 x %struct.except_id_t] [%struct.except_id_t { i64 1, i64 0 }], align 16

; Function Attrs: null_pointer_is_valid sspstrong uwtable
define internal i32 @get_z3950_pdu_len(ptr noundef %0, ptr noundef %1, i32 noundef %2, ptr noundef %3) #0 {
  %5 = alloca ptr, align 8
  %6 = alloca ptr, align 8
  %7 = alloca i32, align 4
  %8 = alloca ptr, align 8
  %9 = alloca i32, align 4
  %10 = alloca i32, align 4
  %11 = alloca ptr, align 8
  %12 = alloca i32, align 4
  %13 = alloca %struct.except_stacknode, align 8
  %14 = alloca %struct.except_catch, align 8
  store ptr %0, ptr %5, align 8
  store ptr %1, ptr %6, align 8
  store i32 %2, ptr %7, align 4
  store ptr %3, ptr %8, align 8
  call void @llvm.lifetime.start.p0(i64 4, ptr %9) #8
  call void @llvm.lifetime.start.p0(i64 4, ptr %10) #8
  call void @llvm.lifetime.start.p0(i64 8, ptr %11) #8
  call void @llvm.lifetime.start.p0(i64 4, ptr %12) #8
  store volatile i32 0, ptr %12, align 4
  call void @llvm.lifetime.start.p0(i64 24, ptr %13) #8
  call void @llvm.lifetime.start.p0(i64 248, ptr %14) #8
  call void @except_setup_try(ptr noundef %13, ptr noundef %14, ptr noundef @get_z3950_pdu_len.catch_spec, i64 noundef 1)
  %15 = getelementptr inbounds nuw %struct.except_catch, ptr %14, i32 0, i32 3
  %16 = getelementptr inbounds [1 x %struct.__jmp_buf_tag], ptr %15, i64 0, i64 0
  %17 = call i32 @_setjmp(ptr noundef %16) #10
  %18 = icmp ne i32 %17, 0
  br i1 %18, label %19, label %21

19:                                               ; preds = %4
  %20 = getelementptr inbounds nuw %struct.except_catch, ptr %14, i32 0, i32 2
  store volatile ptr %20, ptr %11, align 8
  br label %22

21:                                               ; preds = %4
  store volatile ptr null, ptr %11, align 8
  br label %22

22:                                               ; preds = %21, %19
  %23 = load volatile i32, ptr %12, align 4
  %24 = and i32 %23, 1
  %25 = icmp ne i32 %24, 0
  br i1 %25, label %26, label %29

26:                                               ; preds = %22
  %27 = load volatile i32, ptr %12, align 4
  %28 = or i32 %27, 2
  store volatile i32 %28, ptr %12, align 4
  br label %29

29:                                               ; preds = %26, %22
  %30 = load volatile i32, ptr %12, align 4
  %31 = and i32 %30, -2
  store volatile i32 %31, ptr %12, align 4
  %32 = load volatile i32, ptr %12, align 4
  %33 = icmp eq i32 %32, 0
  br i1 %33, label %34, label %49

34:                                               ; preds = %29
  %35 = load volatile ptr, ptr %11, align 8
  %36 = icmp eq ptr %35, null
  br i1 %36, label %37, label %49

37:                                               ; preds = %34
  %38 = load ptr, ptr %6, align 8
  %39 = load i32, ptr %7, align 4
  %40 = call i32 @get_ber_identifier(ptr noundef %38, i32 noundef %39, ptr noundef null, ptr noundef null, ptr noundef null)
  store i32 %40, ptr %10, align 4
  %41 = load ptr, ptr %6, align 8
  %42 = load i32, ptr %10, align 4
  %43 = call i32 @get_ber_length(ptr noundef %41, i32 noundef %42, ptr noundef %9, ptr noundef null)
  store i32 %43, ptr %10, align 4
  %44 = load i32, ptr %10, align 4
  %45 = load i32, ptr %7, align 4
  %46 = sub i32 %44, %45
  %47 = load i32, ptr %9, align 4
  %48 = add i32 %47, %46
  store i32 %48, ptr %9, align 4
  br label %49

49:                                               ; preds = %37, %34, %29
  %50 = load volatile i32, ptr %12, align 4
  %51 = icmp eq i32 %50, 0
  br i1 %51, label %52, label %66

52:                                               ; preds = %49
  %53 = load volatile ptr, ptr %11, align 8
  %54 = icmp ne ptr %53, null
  br i1 %54, label %55, label %66

55:                                               ; preds = %52
  %56 = load volatile ptr, ptr %11, align 8
  %57 = getelementptr inbounds nuw %struct.except_t, ptr %56, i32 0, i32 0
  %58 = getelementptr inbounds nuw %struct.except_id_t, ptr %57, i32 0, i32 1
  %59 = load volatile i64, ptr %58, align 8
  %60 = icmp eq i64 %59, 3
  br i1 %60, label %61, label %66

61:                                               ; preds = %55
  %62 = load volatile i32, ptr %12, align 4
  %63 = or i32 %62, 1
  store volatile i32 %63, ptr %12, align 4
  %64 = icmp ne i32 %63, 0
  br i1 %64, label %65, label %66

65:                                               ; preds = %61
  store i32 0, ptr %9, align 4
  br label %66

66:                                               ; preds = %65, %61, %55, %52, %49
  %67 = load volatile i32, ptr %12, align 4
  %68 = and i32 %67, 1
  %69 = icmp ne i32 %68, 0
  br i1 %69, label %75, label %70

70:                                               ; preds = %66
  %71 = load volatile ptr, ptr %11, align 8
  %72 = icmp ne ptr %71, null
  br i1 %72, label %73, label %75

73:                                               ; preds = %70
  %74 = load volatile ptr, ptr %11, align 8
  call void @except_rethrow(ptr noundef %74) #11
  unreachable

75:                                               ; preds = %70, %66
  %76 = getelementptr inbounds nuw %struct.except_catch, ptr %14, i32 0, i32 2
  %77 = getelementptr inbounds nuw %struct.except_t, ptr %76, i32 0, i32 2
  %78 = load volatile ptr, ptr %77, align 8
  call void @except_free(ptr noundef %78)
  %79 = call ptr @except_pop()
  call void @llvm.lifetime.end.p0(i64 248, ptr %14) #8
  call void @llvm.lifetime.end.p0(i64 24, ptr %13) #8
  call void @llvm.lifetime.end.p0(i64 4, ptr %12) #8
  call void @llvm.lifetime.end.p0(i64 8, ptr %11) #8
  %80 = load i32, ptr %9, align 4
  call void @llvm.lifetime.end.p0(i64 4, ptr %10) #8
  call void @llvm.lifetime.end.p0(i64 4, ptr %9) #8
  ret i32 %80
}