; Function Attrs: null_pointer_is_valid sspstrong uwtable
define internal i32 @get_z3950_pdu_len(ptr readnone captures(none) %0, ptr noundef %1, i32 noundef %2, ptr readnone captures(none) %3) #0 {
  %5 = alloca i32, align 4
  %6 = alloca ptr, align 8
  %7 = alloca i32, align 4
  %8 = alloca %struct.except_stacknode, align 8
  %9 = alloca %struct.except_catch, align 8
  call void @llvm.lifetime.start.p0(i64 4, ptr nonnull %5) #9
  call void @llvm.lifetime.start.p0(i64 8, ptr nonnull %6)
  call void @llvm.lifetime.start.p0(i64 4, ptr nonnull %7)
  store volatile i32 0, ptr %7, align 4
  call void @llvm.lifetime.start.p0(i64 24, ptr nonnull %8) #9
  call void @llvm.lifetime.start.p0(i64 248, ptr nonnull %9) #9
  call void @except_setup_try(ptr noundef nonnull %8, ptr noundef nonnull %9, ptr noundef nonnull @get_z3950_pdu_len.catch_spec, i64 noundef 1)
  %10 = getelementptr inbounds nuw i8, ptr %9, i64 48
  %11 = call i32 @_setjmp(ptr noundef nonnull %10) #11
  %.not = icmp eq i32 %11, 0
  %12 = getelementptr inbounds nuw i8, ptr %9, i64 16
  %.sink = select i1 %.not, ptr null, ptr %12
  store volatile ptr %.sink, ptr %6, align 8
  %.0..0..0..0. = load volatile i32, ptr %7, align 4
  %13 = and i32 %.0..0..0..0., 1
  %.not17 = icmp eq i32 %13, 0
  br i1 %.not17, label %16, label %14

14:                                               ; preds = %4
  %.0..0..0..0.1 = load volatile i32, ptr %7, align 4
  %15 = or i32 %.0..0..0..0.1, 2
  store volatile i32 %15, ptr %7, align 4
  br label %16

16:                                               ; preds = %14, %4
  %.0..0..0..0.2 = load volatile i32, ptr %7, align 4
  %17 = and i32 %.0..0..0..0.2, -2
  store volatile i32 %17, ptr %7, align 4
  %.0..0..0..0.3 = load volatile i32, ptr %7, align 4
  %18 = icmp eq i32 %.0..0..0..0.3, 0
  br i1 %18, label %19, label %27

19:                                               ; preds = %16
  %.0..0..0..0.7 = load volatile ptr, ptr %6, align 8
  %20 = icmp eq ptr %.0..0..0..0.7, null
  br i1 %20, label %21, label %27

21:                                               ; preds = %19
  %22 = call i32 @get_ber_identifier(ptr noundef %1, i32 noundef %2, ptr noundef null, ptr noundef null, ptr noundef null)
  %23 = call i32 @get_ber_length(ptr noundef %1, i32 noundef %22, ptr noundef nonnull %5, ptr noundef null)
  %24 = sub i32 %23, %2
  %25 = load i32, ptr %5, align 4
  %26 = add i32 %24, %25
  store i32 %26, ptr %5, align 4
  br label %27

27:                                               ; preds = %21, %19, %16
  %.0..0..0..0.4 = load volatile i32, ptr %7, align 4
  %28 = icmp eq i32 %.0..0..0..0.4, 0
  br i1 %28, label %29, label %36

29:                                               ; preds = %27
  %.0..0..0..0.8 = load volatile ptr, ptr %6, align 8
  %.not18 = icmp eq ptr %.0..0..0..0.8, null
  br i1 %.not18, label %36, label %30

30:                                               ; preds = %29
  %.0..0..0..0.9 = load volatile ptr, ptr %6, align 8
  %31 = getelementptr inbounds nuw i8, ptr %.0..0..0..0.9, i64 8
  %32 = load volatile i64, ptr %31, align 8
  %33 = icmp eq i64 %32, 3
  br i1 %33, label %34, label %36

34:                                               ; preds = %30
  %.0..0..0..0.5 = load volatile i32, ptr %7, align 4
  %35 = or i32 %.0..0..0..0.5, 1
  store volatile i32 %35, ptr %7, align 4
  store i32 0, ptr %5, align 4
  br label %36

36:                                               ; preds = %34, %30, %29, %27
  %.0..0..0..0.6 = load volatile i32, ptr %7, align 4
  %37 = and i32 %.0..0..0..0.6, 1
  %.not19 = icmp eq i32 %37, 0
  br i1 %.not19, label %38, label %40

38:                                               ; preds = %36
  %.0..0..0..0.10 = load volatile ptr, ptr %6, align 8
  %.not20 = icmp eq ptr %.0..0..0..0.10, null
  br i1 %.not20, label %40, label %39

39:                                               ; preds = %38
  %.0..0..0..0.11 = load volatile ptr, ptr %6, align 8
  call void @except_rethrow(ptr noundef %.0..0..0..0.11) #12
  unreachable

40:                                               ; preds = %38, %36
  %41 = getelementptr inbounds nuw i8, ptr %9, i64 40
  %42 = load volatile ptr, ptr %41, align 8
  call void @except_free(ptr noundef %42)
  %43 = call ptr @except_pop()
  call void @llvm.lifetime.end.p0(i64 248, ptr nonnull %9) #9
  call void @llvm.lifetime.end.p0(i64 24, ptr nonnull %8) #9
  call void @llvm.lifetime.end.p0(i64 4, ptr nonnull %7)
  call void @llvm.lifetime.end.p0(i64 8, ptr nonnull %6)
  %44 = load i32, ptr %5, align 4
  call void @llvm.lifetime.end.p0(i64 4, ptr nonnull %5) #9
  ret i32 %44
}